ARM GAS  C:\Users\Valentin\AppData\Local\Temp\ccsQPbmu.s 			page 1


   1              		.cpu cortex-m4
   2              		.eabi_attribute 27, 1
   3              		.eabi_attribute 28, 1
   4              		.eabi_attribute 20, 1
   5              		.eabi_attribute 21, 1
   6              		.eabi_attribute 23, 3
   7              		.eabi_attribute 24, 1
   8              		.eabi_attribute 25, 1
   9              		.eabi_attribute 26, 1
  10              		.eabi_attribute 30, 2
  11              		.eabi_attribute 34, 1
  12              		.eabi_attribute 18, 4
  13              		.file	"modeSelect.c"
  14              		.text
  15              	.Ltext0:
  16              		.cfi_sections	.debug_frame
  17              		.section	.text.ThdSelectMode,"ax",%progbits
  18              		.align	1
  19              		.p2align 4,,15
  20              		.syntax unified
  21              		.thumb
  22              		.thumb_func
  23              		.fpu fpv4-sp-d16
  24              		.type	ThdSelectMode, %function
  25              	ThdSelectMode:
  26              	.LFB259:
  27              		.file 1 "modeSelect.c"
  28              		.loc 1 13 0
  29              		.cfi_startproc
  30              		@ args = 0, pretend = 0, frame = 8
  31              		@ frame_needed = 0, uses_anonymous_args = 0
  32              	.LVL0:
  33 0000 00B5     		push	{lr}
  34              		.cfi_def_cfa_offset 4
  35              		.cfi_offset 14, -4
  36              	.LBB5:
  37              	.LBB6:
  38              		.file 2 "../e-puck2_main-processor/ChibiOS//os/rt/include/chregistry.h"
  39              		.loc 2 135 0
  40 0002 1B4A     		ldr	r2, .L13
  41              	.LBE6:
  42              	.LBE5:
  43              		.loc 1 13 0
  44 0004 1B4B     		ldr	r3, .L13+4
  45              	.LBB9:
  46              	.LBB7:
  47              		.loc 2 135 0
  48 0006 9269     		ldr	r2, [r2, #24]
  49 0008 1B49     		ldr	r1, .L13+8
  50              	.LBE7:
  51              	.LBE9:
  52              		.loc 1 13 0
  53 000a 1B68     		ldr	r3, [r3]
  54              	.LBB10:
  55              	.LBB8:
  56              		.loc 2 135 0
  57 000c 9161     		str	r1, [r2, #24]
ARM GAS  C:\Users\Valentin\AppData\Local\Temp\ccsQPbmu.s 			page 2


  58              	.LBE8:
  59              	.LBE10:
  60              		.loc 1 13 0
  61 000e 83B0     		sub	sp, sp, #12
  62              		.cfi_def_cfa_offset 16
  63              		.loc 1 13 0
  64 0010 0193     		str	r3, [sp, #4]
  65              	.LVL1:
  66              	.L9:
  67              	.LBB11:
  68              		.loc 1 19 0
  69 0012 FFF7FEFF 		bl	get_selector
  70              	.LVL2:
  71              		.loc 1 20 0
  72 0016 0328     		cmp	r0, #3
  73 0018 27D8     		bhi	.L2
  74 001a DFE800F0 		tbb	[pc, r0]
  75              	.L4:
  76 001e 19       		.byte	(.L3-.L4)/2
  77 001f 13       		.byte	(.L5-.L4)/2
  78 0020 0F       		.byte	(.L6-.L4)/2
  79 0021 02       		.byte	(.L7-.L4)/2
  80              		.p2align 1
  81              	.L7:
  82              		.loc 1 36 0
  83 0022 FFF7FEFF 		bl	clear_leds
  84              	.LVL3:
  85              		.loc 1 37 0
  86 0026 0120     		movs	r0, #1
  87 0028 FFF7FEFF 		bl	set_front_led
  88              	.LVL4:
  89              		.loc 1 38 0
  90 002c 0120     		movs	r0, #1
  91 002e FFF7FEFF 		bl	set_body_led
  92              	.LVL5:
  93              	.L8:
  94              		.loc 1 44 0
  95 0032 40F27710 		movw	r0, #375
  96 0036 FFF7FEFF 		bl	chThdSleep
  97              	.LVL6:
  98              	.LBE11:
  99              		.loc 1 18 0
 100 003a EAE7     		b	.L9
 101              	.LVL7:
 102              	.L6:
 103              	.LBB12:
 104              		.loc 1 33 0
 105 003c 0120     		movs	r0, #1
 106              	.LVL8:
 107 003e FFF7FEFF 		bl	set_front_led
 108              	.LVL9:
 109              		.loc 1 34 0
 110 0042 F6E7     		b	.L8
 111              	.LVL10:
 112              	.L5:
 113              		.loc 1 29 0
 114 0044 FFF7FEFF 		bl	clear_leds
ARM GAS  C:\Users\Valentin\AppData\Local\Temp\ccsQPbmu.s 			page 3


 115              	.LVL11:
 116              		.loc 1 30 0
 117 0048 0120     		movs	r0, #1
 118 004a FFF7FEFF 		bl	set_body_led
 119              	.LVL12:
 120              		.loc 1 31 0
 121 004e F0E7     		b	.L8
 122              	.LVL13:
 123              	.L3:
 124              		.loc 1 23 0
 125 0050 FFF7FEFF 		bl	clear_leds
 126              	.LVL14:
 127              		.loc 1 24 0
 128 0054 FFF7FEFF 		bl	motors_init
 129              	.LVL15:
 130              		.loc 1 25 0
 131 0058 4FF4FA70 		mov	r0, #500
 132 005c FFF7FEFF 		bl	right_motor_set_pos
 133              	.LVL16:
 134              		.loc 1 26 0
 135 0060 4FF4FA70 		mov	r0, #500
 136 0064 FFF7FEFF 		bl	left_motor_set_pos
 137              	.LVL17:
 138              		.loc 1 27 0
 139 0068 E3E7     		b	.L8
 140              	.LVL18:
 141              	.L2:
 142              		.loc 1 41 0
 143 006a FFF7FEFF 		bl	clear_leds
 144              	.LVL19:
 145              		.loc 1 42 0
 146 006e E0E7     		b	.L8
 147              	.L14:
 148              		.align	2
 149              	.L13:
 150 0070 00000000 		.word	ch
 151 0074 00000000 		.word	__stack_chk_guard
 152 0078 00000000 		.word	.LANCHOR0
 153              	.LBE12:
 154              		.cfi_endproc
 155              	.LFE259:
 156              		.size	ThdSelectMode, .-ThdSelectMode
 157              		.section	.text.selectionMode,"ax",%progbits
 158              		.align	1
 159              		.p2align 4,,15
 160              		.global	selectionMode
 161              		.syntax unified
 162              		.thumb
 163              		.thumb_func
 164              		.fpu fpv4-sp-d16
 165              		.type	selectionMode, %function
 166              	selectionMode:
 167              	.LFB260:
 168              		.loc 1 49 0
 169              		.cfi_startproc
 170              		@ args = 0, pretend = 0, frame = 8
 171              		@ frame_needed = 0, uses_anonymous_args = 0
ARM GAS  C:\Users\Valentin\AppData\Local\Temp\ccsQPbmu.s 			page 4


 172 0000 10B5     		push	{r4, lr}
 173              		.cfi_def_cfa_offset 8
 174              		.cfi_offset 4, -8
 175              		.cfi_offset 14, -4
 176 0002 0A4C     		ldr	r4, .L19
 177              		.loc 1 50 0
 178 0004 0A4B     		ldr	r3, .L19+4
 179              		.loc 1 49 0
 180 0006 2268     		ldr	r2, [r4]
 181              		.loc 1 50 0
 182 0008 0A48     		ldr	r0, .L19+8
 183              		.loc 1 49 0
 184 000a 84B0     		sub	sp, sp, #16
 185              		.cfi_def_cfa_offset 24
 186              		.loc 1 50 0
 187 000c 4FF41E71 		mov	r1, #632
 188              		.loc 1 49 0
 189 0010 0392     		str	r2, [sp, #12]
 190              		.loc 1 50 0
 191 0012 0022     		movs	r2, #0
 192 0014 0092     		str	r2, [sp]
 193 0016 4022     		movs	r2, #64
 194 0018 FFF7FEFF 		bl	chThdCreateStatic
 195              	.LVL20:
 196              		.loc 1 51 0
 197 001c 039A     		ldr	r2, [sp, #12]
 198 001e 2368     		ldr	r3, [r4]
 199 0020 9A42     		cmp	r2, r3
 200 0022 01D1     		bne	.L18
 201 0024 04B0     		add	sp, sp, #16
 202              		.cfi_remember_state
 203              		.cfi_def_cfa_offset 8
 204              		@ sp needed
 205 0026 10BD     		pop	{r4, pc}
 206              	.L18:
 207              		.cfi_restore_state
 208 0028 FFF7FEFF 		bl	__stack_chk_fail
 209              	.LVL21:
 210              	.L20:
 211              		.align	2
 212              	.L19:
 213 002c 00000000 		.word	__stack_chk_guard
 214 0030 00000000 		.word	ThdSelectMode
 215 0034 00000000 		.word	.LANCHOR1
 216              		.cfi_endproc
 217              	.LFE260:
 218              		.size	selectionMode, .-selectionMode
 219              		.section	.bss.waThdSelectMode,"aw",%nobits
 220              		.align	3
 221              		.set	.LANCHOR1,. + 0
 222              		.type	waThdSelectMode, %object
 223              		.size	waThdSelectMode, 632
 224              	waThdSelectMode:
 225 0000 00000000 		.space	632
 225      00000000 
 225      00000000 
 225      00000000 
ARM GAS  C:\Users\Valentin\AppData\Local\Temp\ccsQPbmu.s 			page 5


 225      00000000 
 226              		.section	.rodata.__FUNCTION__.12041,"a",%progbits
 227              		.align	2
 228              		.set	.LANCHOR0,. + 0
 229              		.type	__FUNCTION__.12041, %object
 230              		.size	__FUNCTION__.12041, 14
 231              	__FUNCTION__.12041:
 232 0000 54686453 		.ascii	"ThdSelectMode\000"
 232      656C6563 
 232      744D6F64 
 232      6500
 233              		.text
 234              	.Letext0:
 235              		.file 3 "c:\\users\\valentin\\desktop\\eclipse_e-puck2\\tools\\gcc-arm-none-eabi-7-2017-q4-major-w
 236              		.file 4 "c:\\users\\valentin\\desktop\\eclipse_e-puck2\\tools\\gcc-arm-none-eabi-7-2017-q4-major-w
 237              		.file 5 "c:\\users\\valentin\\desktop\\eclipse_e-puck2\\tools\\gcc-arm-none-eabi-7-2017-q4-major-w
 238              		.file 6 "c:\\users\\valentin\\desktop\\eclipse_e-puck2\\tools\\gcc-arm-none-eabi-7-2017-q4-major-w
 239              		.file 7 "c:\\users\\valentin\\desktop\\eclipse_e-puck2\\tools\\gcc-arm-none-eabi-7-2017-q4-major-w
 240              		.file 8 "c:\\users\\valentin\\desktop\\eclipse_e-puck2\\tools\\gcc-arm-none-eabi-7-2017-q4-major-w
 241              		.file 9 "c:\\users\\valentin\\desktop\\eclipse_e-puck2\\tools\\gcc-arm-none-eabi-7-2017-q4-major-w
 242              		.file 10 "c:\\users\\valentin\\desktop\\eclipse_e-puck2\\tools\\gcc-arm-none-eabi-7-2017-q4-major-
 243              		.file 11 "../e-puck2_main-processor/ChibiOS//os/rt/ports/ARMCMx/compilers/GCC/chtypes.h"
 244              		.file 12 "../e-puck2_main-processor/ChibiOS//os/rt/include/chsystypes.h"
 245              		.file 13 "../e-puck2_main-processor/ChibiOS//os/rt/include/chschd.h"
 246              		.file 14 "../e-puck2_main-processor/ChibiOS//os/ext/CMSIS/include/core_cm4.h"
 247              		.file 15 "../e-puck2_main-processor/ChibiOS//os/ext/CMSIS/ST/system_stm32f4xx.h"
 248              		.file 16 "../e-puck2_main-processor/ChibiOS//os/ext/CMSIS/ST/stm32f407xx.h"
 249              		.file 17 "../e-puck2_main-processor/ChibiOS//os/rt/ports/ARMCMx/chcore.h"
 250              		.file 18 "../e-puck2_main-processor/ChibiOS//os/rt/ports/ARMCMx/chcore_v7m.h"
 251              		.file 19 "../e-puck2_main-processor/ChibiOS//os/rt/include/chdebug.h"
 252              		.file 20 "../e-puck2_main-processor/ChibiOS//os/rt/include/chtm.h"
 253              		.file 21 "../e-puck2_main-processor/ChibiOS//os/rt/include/chstats.h"
 254              		.file 22 "../e-puck2_main-processor/ChibiOS//os/rt/include/chsem.h"
 255              		.file 23 "../e-puck2_main-processor/ChibiOS//os/rt/include/chmtx.h"
 256              		.file 24 "../e-puck2_main-processor/ChibiOS//os/rt/include/chevents.h"
 257              		.file 25 "../e-puck2_main-processor/ChibiOS//os/rt/include/chqueues.h"
 258              		.file 26 "../e-puck2_main-processor/ChibiOS//os/hal/ports/STM32/STM32F4xx/stm32_dma.h"
 259              		.file 27 "../e-puck2_main-processor/ChibiOS//os/hal/include/hal_ioblock.h"
 260              		.file 28 "../e-puck2_main-processor/ChibiOS//os/hal/ports/STM32/LLD/GPIOv2/pal_lld.h"
 261              		.file 29 "../e-puck2_main-processor/ChibiOS//os/hal/include/adc.h"
 262              		.file 30 "../e-puck2_main-processor/ChibiOS//os/hal/ports/STM32/STM32F4xx/adc_lld.h"
 263              		.file 31 "../e-puck2_main-processor/ChibiOS//os/hal/include/can.h"
 264              		.file 32 "../e-puck2_main-processor/ChibiOS//os/hal/ports/STM32/LLD/can_lld.h"
 265              		.file 33 "../e-puck2_main-processor/ChibiOS//os/hal/include/dac.h"
 266              		.file 34 "../e-puck2_main-processor/ChibiOS//os/hal/ports/STM32/LLD/DACv1/dac_lld.h"
 267              		.file 35 "../e-puck2_main-processor/ChibiOS//os/hal/include/ext.h"
 268              		.file 36 "../e-puck2_main-processor/ChibiOS//os/hal/ports/STM32/LLD/ext_lld.h"
 269              		.file 37 "../e-puck2_main-processor/ChibiOS//os/hal/include/gpt.h"
 270              		.file 38 "../e-puck2_main-processor/ChibiOS//os/hal/ports/STM32/LLD/TIMv1/gpt_lld.h"
 271              		.file 39 "../e-puck2_main-processor/ChibiOS//os/hal/ports/STM32/LLD/TIMv1/stm32_tim.h"
 272              		.file 40 "../e-puck2_main-processor/ChibiOS//os/hal/include/i2c.h"
 273              		.file 41 "../e-puck2_main-processor/ChibiOS//os/hal/ports/STM32/LLD/I2Cv1/i2c_lld.h"
 274              		.file 42 "../e-puck2_main-processor/ChibiOS//os/hal/include/i2s.h"
 275              		.file 43 "../e-puck2_main-processor/ChibiOS//os/hal/ports/STM32/LLD/SPIv1/i2s_lld.h"
 276              		.file 44 "../e-puck2_main-processor/ChibiOS//os/hal/include/pwm.h"
 277              		.file 45 "../e-puck2_main-processor/ChibiOS//os/hal/ports/STM32/LLD/TIMv1/pwm_lld.h"
 278              		.file 46 "../e-puck2_main-processor/ChibiOS//os/hal/include/serial.h"
ARM GAS  C:\Users\Valentin\AppData\Local\Temp\ccsQPbmu.s 			page 6


 279              		.file 47 "../e-puck2_main-processor/ChibiOS//os/hal/ports/STM32/LLD/USARTv1/serial_lld.h"
 280              		.file 48 "../e-puck2_main-processor/ChibiOS//os/hal/include/sdc.h"
 281              		.file 49 "../e-puck2_main-processor/ChibiOS//os/hal/ports/STM32/LLD/sdc_lld.h"
 282              		.file 50 "../e-puck2_main-processor/ChibiOS//os/hal/include/spi.h"
 283              		.file 51 "../e-puck2_main-processor/ChibiOS//os/hal/ports/STM32/LLD/SPIv1/spi_lld.h"
 284              		.file 52 "../e-puck2_main-processor/ChibiOS//os/hal/include/usb.h"
 285              		.file 53 "../e-puck2_main-processor/ChibiOS//os/hal/ports/STM32/LLD/OTGv1/usb_lld.h"
 286              		.file 54 "../e-puck2_main-processor/ChibiOS//os/hal/ports/STM32/LLD/OTGv1/stm32_otg.h"
 287              		.file 55 "../e-puck2_main-processor/ChibiOS//os/rt/include/chthreads.h"
 288              		.file 56 "../e-puck2_main-processor/src/selector.h"
 289              		.file 57 "../e-puck2_main-processor/src/leds.h"
 290              		.file 58 "../e-puck2_main-processor/src/motors.h"